target datalayout = "e-m:e-p270:32:32-p271:32:32-p272:64:64-i64:64-i128:128-f80:128-n8:16:32:64-S128"
target triple = "x86_64-pc-linux-gnu"

%union.cmsInterpFunction = type { ptr }
%struct._cms_interp_struc = type { ptr, i32, i32, i32, [15 x i32], [15 x i32], [15 x i32], ptr, %union.cmsInterpFunction }

; Function Attrs: nounwind uwtable
define internal i32 @_cmsQuickFloor(double noundef %0) #0 {
  %2 = alloca double, align 8
  store double %0, ptr %2, align 8
  %3 = load double, ptr %2, align 8
  %4 = call double @llvm.floor.f64(double %3)
  %5 = fptosi double %4 to i32
  ret i32 %5
}

; Function Attrs: nounwind uwtable
define internal float @fclamp(float noundef %0) #0 {
  %2 = alloca float, align 4
  store float %0, ptr %2, align 4
  %3 = load float, ptr %2, align 4
  %4 = fcmp olt float %3, 0x3E112E0BE0000000
  br i1 %4, label %8, label %5

5:                                                ; preds = %1
  %6 = load float, ptr %2, align 4
  %7 = call i1 @llvm.is.fpclass.f32(float %6, i32 3)
  br i1 %7, label %8, label %9

8:                                                ; preds = %5, %1
  br label %17

9:                                                ; preds = %5
  %10 = load float, ptr %2, align 4
  %11 = fcmp ogt float %10, 1.000000e+00
  br i1 %11, label %12, label %13

12:                                               ; preds = %9
  br label %15

13:                                               ; preds = %9
  %14 = load float, ptr %2, align 4
  br label %15

15:                                               ; preds = %13, %12
  %16 = phi float [ 1.000000e+00, %12 ], [ %14, %13 ]
  br label %17

17:                                               ; preds = %15, %8
  %18 = phi float [ 0.000000e+00, %8 ], [ %16, %15 ]
  ret float %18
}

; Function Attrs: nounwind uwtable
define internal void @BilinearInterpFloat(ptr noundef %0, ptr noundef %1, ptr noundef %2) #0 {
  %4 = alloca ptr, align 8
  %5 = alloca ptr, align 8
  %6 = alloca ptr, align 8
  %7 = alloca ptr, align 8
  %8 = alloca float, align 4
  %9 = alloca float, align 4
  %10 = alloca i32, align 4
  %11 = alloca i32, align 4
  %12 = alloca i32, align 4
  %13 = alloca i32, align 4
  %14 = alloca i32, align 4
  %15 = alloca i32, align 4
  %16 = alloca i32, align 4
  %17 = alloca i32, align 4
  %18 = alloca float, align 4
  %19 = alloca float, align 4
  %20 = alloca float, align 4
  %21 = alloca float, align 4
  %22 = alloca float, align 4
  %23 = alloca float, align 4
  %24 = alloca float, align 4
  %25 = alloca float, align 4
  %26 = alloca float, align 4
  store ptr %0, ptr %4, align 8
  store ptr %1, ptr %5, align 8
  store ptr %2, ptr %6, align 8
  %27 = load ptr, ptr %6, align 8
  %28 = getelementptr inbounds %struct._cms_interp_struc, ptr %27, i32 0, i32 7
  %29 = load ptr, ptr %28, align 8
  store ptr %29, ptr %7, align 8
  %30 = load ptr, ptr %6, align 8
  %31 = getelementptr inbounds %struct._cms_interp_struc, ptr %30, i32 0, i32 3
  %32 = load i32, ptr %31, align 8
  store i32 %32, ptr %16, align 4
  %33 = load ptr, ptr %4, align 8
  %34 = getelementptr inbounds float, ptr %33, i64 0
  %35 = load float, ptr %34, align 4
  %36 = call float @fclamp(float noundef %35)
  %37 = load ptr, ptr %6, align 8
  %38 = getelementptr inbounds %struct._cms_interp_struc, ptr %37, i32 0, i32 5
  %39 = getelementptr inbounds [15 x i32], ptr %38, i64 0, i64 0
  %40 = load i32, ptr %39, align 8
  %41 = uitofp i32 %40 to float
  %42 = fmul float %36, %41
  store float %42, ptr %8, align 4
  %43 = load ptr, ptr %4, align 8
  %44 = getelementptr inbounds float, ptr %43, i64 1
  %45 = load float, ptr %44, align 4
  %46 = call float @fclamp(float noundef %45)
  %47 = load ptr, ptr %6, align 8
  %48 = getelementptr inbounds %struct._cms_interp_struc, ptr %47, i32 0, i32 5
  %49 = getelementptr inbounds [15 x i32], ptr %48, i64 0, i64 1
  %50 = load i32, ptr %49, align 4
  %51 = uitofp i32 %50 to float
  %52 = fmul float %46, %51
  store float %52, ptr %9, align 4
  %53 = load float, ptr %8, align 4
  %54 = fpext float %53 to double
  %55 = call i32 @_cmsQuickFloor(double noundef %54)
  store i32 %55, ptr %10, align 4
  %56 = load float, ptr %8, align 4
  %57 = load i32, ptr %10, align 4
  %58 = sitofp i32 %57 to float
  %59 = fsub float %56, %58
  store float %59, ptr %18, align 4
  %60 = load float, ptr %9, align 4
  %61 = fpext float %60 to double
  %62 = call i32 @_cmsQuickFloor(double noundef %61)
  store i32 %62, ptr %11, align 4
  %63 = load float, ptr %9, align 4
  %64 = load i32, ptr %11, align 4
  %65 = sitofp i32 %64 to float
  %66 = fsub float %63, %65
  store float %66, ptr %19, align 4
  %67 = load ptr, ptr %6, align 8
  %68 = getelementptr inbounds %struct._cms_interp_struc, ptr %67, i32 0, i32 6
  %69 = getelementptr inbounds [15 x i32], ptr %68, i64 0, i64 1
  %70 = load i32, ptr %69, align 4
  %71 = load i32, ptr %10, align 4
  %72 = mul i32 %70, %71
  store i32 %72, ptr %12, align 4
  %73 = load i32, ptr %12, align 4
  %74 = load ptr, ptr %4, align 8
  %75 = getelementptr inbounds float, ptr %74, i64 0
  %76 = load float, ptr %75, align 4
  %77 = call float @fclamp(float noundef %76)
  %78 = fpext float %77 to double
  %79 = fcmp oge double %78, 1.000000e+00
  br i1 %79, label %80, label %81

80:                                               ; preds = %3
  br label %86

81:                                               ; preds = %3
  %82 = load ptr, ptr %6, align 8
  %83 = getelementptr inbounds %struct._cms_interp_struc, ptr %82, i32 0, i32 6
  %84 = getelementptr inbounds [15 x i32], ptr %83, i64 0, i64 1
  %85 = load i32, ptr %84, align 4
  br label %86

86:                                               ; preds = %81, %80
  %87 = phi i32 [ 0, %80 ], [ %85, %81 ]
  %88 = add i32 %73, %87
  store i32 %88, ptr %14, align 4
  %89 = load ptr, ptr %6, align 8
  %90 = getelementptr inbounds %struct._cms_interp_struc, ptr %89, i32 0, i32 6
  %91 = getelementptr inbounds [15 x i32], ptr %90, i64 0, i64 0
  %92 = load i32, ptr %91, align 4
  %93 = load i32, ptr %11, align 4
  %94 = mul i32 %92, %93
  store i32 %94, ptr %13, align 4
  %95 = load i32, ptr %13, align 4
  %96 = load ptr, ptr %4, align 8
  %97 = getelementptr inbounds float, ptr %96, i64 1
  %98 = load float, ptr %97, align 4
  %99 = call float @fclamp(float noundef %98)
  %100 = fpext float %99 to double
  %101 = fcmp oge double %100, 1.000000e+00
  br i1 %101, label %102, label %103

102:                                              ; preds = %86
  br label %108

103:                                              ; preds = %86
  %104 = load ptr, ptr %6, align 8
  %105 = getelementptr inbounds %struct._cms_interp_struc, ptr %104, i32 0, i32 6
  %106 = getelementptr inbounds [15 x i32], ptr %105, i64 0, i64 0
  %107 = load i32, ptr %106, align 4
  br label %108

108:                                              ; preds = %103, %102
  %109 = phi i32 [ 0, %102 ], [ %107, %103 ]
  %110 = add i32 %95, %109
  store i32 %110, ptr %15, align 4
  store i32 0, ptr %17, align 4
  br label %111

111:                                              ; preds = %175, %108
  %112 = load i32, ptr %17, align 4
  %113 = load i32, ptr %16, align 4
  %114 = icmp slt i32 %112, %113
  br i1 %114, label %115, label %178

115:                                              ; preds = %111
  %116 = load ptr, ptr %7, align 8
  %117 = load i32, ptr %12, align 4
  %118 = load i32, ptr %13, align 4
  %119 = add nsw i32 %117, %118
  %120 = load i32, ptr %17, align 4
  %121 = add nsw i32 %119, %120
  %122 = sext i32 %121 to i64
  %123 = getelementptr inbounds float, ptr %116, i64 %122
  %124 = load float, ptr %123, align 4
  store float %124, ptr %20, align 4
  %125 = load ptr, ptr %7, align 8
  %126 = load i32, ptr %12, align 4
  %127 = load i32, ptr %15, align 4
  %128 = add nsw i32 %126, %127
  %129 = load i32, ptr %17, align 4
  %130 = add nsw i32 %128, %129
  %131 = sext i32 %130 to i64
  %132 = getelementptr inbounds float, ptr %125, i64 %131
  %133 = load float, ptr %132, align 4
  store float %133, ptr %21, align 4
  %134 = load ptr, ptr %7, align 8
  %135 = load i32, ptr %14, align 4
  %136 = load i32, ptr %13, align 4
  %137 = add nsw i32 %135, %136
  %138 = load i32, ptr %17, align 4
  %139 = add nsw i32 %137, %138
  %140 = sext i32 %139 to i64
  %141 = getelementptr inbounds float, ptr %134, i64 %140
  %142 = load float, ptr %141, align 4
  store float %142, ptr %22, align 4
  %143 = load ptr, ptr %7, align 8
  %144 = load i32, ptr %14, align 4
  %145 = load i32, ptr %15, align 4
  %146 = add nsw i32 %144, %145
  %147 = load i32, ptr %17, align 4
  %148 = add nsw i32 %146, %147
  %149 = sext i32 %148 to i64
  %150 = getelementptr inbounds float, ptr %143, i64 %149
  %151 = load float, ptr %150, align 4
  store float %151, ptr %23, align 4
  %152 = load float, ptr %20, align 4
  %153 = load float, ptr %22, align 4
  %154 = load float, ptr %20, align 4
  %155 = fsub float %153, %154
  %156 = load float, ptr %18, align 4
  %157 = call float @llvm.fmuladd.f32(float %155, float %156, float %152)
  store float %157, ptr %24, align 4
  %158 = load float, ptr %21, align 4
  %159 = load float, ptr %23, align 4
  %160 = load float, ptr %21, align 4
  %161 = fsub float %159, %160
  %162 = load float, ptr %18, align 4
  %163 = call float @llvm.fmuladd.f32(float %161, float %162, float %158)
  store float %163, ptr %25, align 4
  %164 = load float, ptr %24, align 4
  %165 = load float, ptr %25, align 4
  %166 = load float, ptr %24, align 4
  %167 = fsub float %165, %166
  %168 = load float, ptr %19, align 4
  %169 = call float @llvm.fmuladd.f32(float %167, float %168, float %164)
  store float %169, ptr %26, align 4
  %170 = load float, ptr %26, align 4
  %171 = load ptr, ptr %5, align 8
  %172 = load i32, ptr %17, align 4
  %173 = sext i32 %172 to i64
  %174 = getelementptr inbounds float, ptr %171, i64 %173
  store float %170, ptr %174, align 4
  br label %175

175:                                              ; preds = %115
  %176 = load i32, ptr %17, align 4
  %177 = add nsw i32 %176, 1
  store i32 %177, ptr %17, align 4
  br label %111, !llvm.loop !14

178:                                              ; preds = %111
  ret void
}