; Function Attrs: nofree norecurse nosync nounwind memory(read, argmem: readwrite, inaccessiblemem: none) uwtable
define internal void @BilinearInterpFloat(ptr nocapture noundef readonly %0, ptr nocapture noundef writeonly %1, ptr nocapture noundef readonly %2) #4 {
  %4 = getelementptr inbounds i8, ptr %2, i64 16
  %5 = load i32, ptr %4, align 8
  %6 = load <2 x float>, ptr %0, align 4
  %7 = fcmp olt <2 x float> %6, <float 0x3E112E0BE0000000, float 0x3E112E0BE0000000>
  %8 = fcmp uno <2 x float> %6, zeroinitializer
  %9 = or <2 x i1> %7, %8
  %10 = fcmp ogt <2 x float> %6, <float 1.000000e+00, float 1.000000e+00>
  %11 = select <2 x i1> %10, <2 x float> <float 1.000000e+00, float 1.000000e+00>, <2 x float> %6
  %12 = select <2 x i1> %9, <2 x float> zeroinitializer, <2 x float> %11
  %13 = getelementptr inbounds i8, ptr %2, i64 84
  %14 = load i32, ptr %13, align 4
  %15 = uitofp i32 %14 to float
  %16 = extractelement <2 x float> %12, i64 1
  %17 = fmul float %16, %15
  %18 = tail call float @llvm.floor.f32(float %17)
  %19 = fptosi float %18 to i32
  %20 = sitofp i32 %19 to float
  %21 = fsub float %17, %20
  %22 = icmp sgt i32 %5, 0
  br i1 %22, label %.lr.ph, label %._crit_edge

.lr.ph:                                           ; preds = %3
  %23 = extractelement <2 x float> %12, i64 0
  %24 = getelementptr inbounds i8, ptr %2, i64 80
  %25 = load i32, ptr %24, align 8
  %26 = uitofp i32 %25 to float
  %27 = fmul float %23, %26
  %28 = tail call float @llvm.floor.f32(float %27)
  %29 = fptosi float %28 to i32
  %30 = sitofp i32 %29 to float
  %31 = fsub float %27, %30
  %32 = getelementptr inbounds i8, ptr %2, i64 200
  %33 = load ptr, ptr %32, align 8
  %34 = getelementptr inbounds i8, ptr %2, i64 140
  %35 = load i32, ptr %34, align 4
  %36 = mul i32 %35, %19
  %37 = fcmp ult <2 x float> %12, <float 1.000000e+00, float 1.000000e+00>
  %38 = extractelement <2 x i1> %37, i64 1
  %39 = select i1 %38, i32 %35, i32 0
  %40 = add i32 %36, %39
  %41 = getelementptr inbounds i8, ptr %2, i64 144
  %42 = load i32, ptr %41, align 4
  %43 = mul i32 %42, %29
  %44 = extractelement <2 x i1> %37, i64 0
  %45 = select i1 %44, i32 %42, i32 0
  %46 = add i32 %43, %45
  %47 = add nsw i32 %36, %43
  %48 = add nsw i32 %40, %43
  %49 = add nsw i32 %36, %46
  %50 = add nsw i32 %40, %46
  %51 = sext i32 %47 to i64
  %52 = sext i32 %48 to i64
  %53 = sext i32 %49 to i64
  %54 = sext i32 %50 to i64
  %wide.trip.count = zext nneg i32 %5 to i64
  %invariant.gep = getelementptr float, ptr %33, i64 %51
  %invariant.gep60 = getelementptr float, ptr %33, i64 %52
  %invariant.gep62 = getelementptr float, ptr %33, i64 %53
  %invariant.gep64 = getelementptr float, ptr %33, i64 %54
  %55 = insertelement <2 x float> poison, float %31, i64 0
  %56 = shufflevector <2 x float> %55, <2 x float> poison, <2 x i32> zeroinitializer
  br label %57

57:                                               ; preds = %.lr.ph, %57
  %indvars.iv = phi i64 [ 0, %.lr.ph ], [ %indvars.iv.next, %57 ]
  %gep = getelementptr float, ptr %invariant.gep, i64 %indvars.iv
  %58 = load float, ptr %gep, align 4
  %gep61 = getelementptr float, ptr %invariant.gep60, i64 %indvars.iv
  %59 = load float, ptr %gep61, align 4
  %gep63 = getelementptr float, ptr %invariant.gep62, i64 %indvars.iv
  %60 = load float, ptr %gep63, align 4
  %gep65 = getelementptr float, ptr %invariant.gep64, i64 %indvars.iv
  %61 = load float, ptr %gep65, align 4
  %62 = insertelement <2 x float> poison, float %61, i64 0
  %63 = insertelement <2 x float> %62, float %60, i64 1
  %64 = insertelement <2 x float> poison, float %59, i64 0
  %65 = insertelement <2 x float> %64, float %58, i64 1
  %66 = fsub <2 x float> %63, %65
  %67 = tail call <2 x float> @llvm.fmuladd.v2f32(<2 x float> %66, <2 x float> %56, <2 x float> %65)
  %68 = extractelement <2 x float> %67, i64 0
  %69 = extractelement <2 x float> %67, i64 1
  %70 = fsub float %68, %69
  %71 = tail call float @llvm.fmuladd.f32(float %70, float %21, float %69)
  %72 = getelementptr inbounds float, ptr %1, i64 %indvars.iv
  store float %71, ptr %72, align 4
  %indvars.iv.next = add nuw nsw i64 %indvars.iv, 1
  %exitcond.not = icmp eq i64 %indvars.iv.next, %wide.trip.count
  br i1 %exitcond.not, label %._crit_edge, label %57, !llvm.loop !14

._crit_edge:                                      ; preds = %57, %3
  ret void
}